; Function Attrs: mustprogress nofree norecurse nosync nounwind willreturn memory(argmem: readwrite) uwtable
define noundef zeroext i1 @_ZN3net16SpdyFrameBuilder4SeekEm(ptr noundef nonnull align 8 captures(none) dereferenceable(36) %0, i64 noundef %1) local_unnamed_addr #4 align 2 {
  %3 = icmp ugt i64 %1, 16777215
  br i1 %3, label %_ZNK3net16SpdyFrameBuilder8CanWriteEm.exit.thread, label %_ZNK3net16SpdyFrameBuilder8CanWriteEm.exit

_ZNK3net16SpdyFrameBuilder8CanWriteEm.exit:       ; preds = %2
  %4 = getelementptr inbounds nuw i8, ptr %0, i64 24
  %5 = load i64, ptr %4, align 8, !tbaa !19
  %6 = getelementptr inbounds nuw i8, ptr %0, i64 16
  %7 = load i64, ptr %6, align 8, !tbaa !20
  %8 = add i64 %5, %1
  %9 = add i64 %8, %7
  %10 = getelementptr inbounds nuw i8, ptr %0, i64 8
  %11 = load i64, ptr %10, align 8, !tbaa !8
  %.not = icmp ugt i64 %9, %11
  br i1 %.not, label %_ZNK3net16SpdyFrameBuilder8CanWriteEm.exit.thread, label %12

12:                                               ; preds = %_ZNK3net16SpdyFrameBuilder8CanWriteEm.exit
  %13 = add i64 %7, %1
  store i64 %13, ptr %6, align 8, !tbaa !20
  br label %_ZNK3net16SpdyFrameBuilder8CanWriteEm.exit.thread

_ZNK3net16SpdyFrameBuilder8CanWriteEm.exit.thread: ; preds = %2, %_ZNK3net16SpdyFrameBuilder8CanWriteEm.exit, %12
  %.0.i4 = phi i1 [ false, %_ZNK3net16SpdyFrameBuilder8CanWriteEm.exit ], [ true, %12 ], [ false, %2 ]
  ret i1 %.0.i4
}